target datalayout = "e-m:e-p270:32:32-p271:32:32-p272:64:64-i64:64-i128:128-f80:128-n8:16:32:64-S128"
target triple = "x86_64-pc-linux-gnu"

%struct.slurmdb_tres_rec_t = type { i64, i32, i64, i32, ptr, ptr }

@.str.11 = private unnamed_addr constant [1 x i8] zeroinitializer, align 1
@.str.13 = private unnamed_addr constant [2 x i8] c",\00", align 1
@.str.153 = private unnamed_addr constant [9 x i8] c"%s%u=%lu\00", align 1
@.str.154 = private unnamed_addr constant [13 x i8] c"%s%s%s%s=%lu\00", align 1
@.str.155 = private unnamed_addr constant [2 x i8] c"/\00", align 1

; Function Attrs: nounwind uwtable
define dso_local ptr @slurmdb_make_tres_string(ptr noundef %0, i32 noundef %1) #0 {
  %3 = alloca ptr, align 8
  %4 = alloca ptr, align 8
  %5 = alloca i32, align 4
  %6 = alloca ptr, align 8
  %7 = alloca ptr, align 8
  %8 = alloca ptr, align 8
  %9 = alloca i32, align 4
  store ptr %0, ptr %4, align 8
  store i32 %1, ptr %5, align 4
  call void @llvm.lifetime.start.p0(i64 8, ptr %6) #10
  store ptr null, ptr %6, align 8
  call void @llvm.lifetime.start.p0(i64 8, ptr %7) #10
  call void @llvm.lifetime.start.p0(i64 8, ptr %8) #10
  %10 = load ptr, ptr %4, align 8
  %11 = icmp ne ptr %10, null
  br i1 %11, label %14, label %12

12:                                               ; preds = %2
  %13 = load ptr, ptr %6, align 8
  store ptr %13, ptr %3, align 8
  store i32 1, ptr %9, align 4
  br label %92

14:                                               ; preds = %2
  %15 = load ptr, ptr %4, align 8
  %16 = call ptr @list_iterator_create(ptr noundef %15)
  store ptr %16, ptr %7, align 8
  br label %17

17:                                               ; preds = %88, %30, %14
  %18 = load ptr, ptr %7, align 8
  %19 = call ptr @list_next(ptr noundef %18)
  store ptr %19, ptr %8, align 8
  %20 = icmp ne ptr %19, null
  br i1 %20, label %21, label %89

21:                                               ; preds = %17
  %22 = load i32, ptr %5, align 4
  %23 = and i32 %22, 4
  %24 = icmp ne i32 %23, 0
  br i1 %24, label %25, label %31

25:                                               ; preds = %21
  %26 = load ptr, ptr %8, align 8
  %27 = getelementptr inbounds nuw %struct.slurmdb_tres_rec_t, ptr %26, i32 0, i32 2
  %28 = load i64, ptr %27, align 8
  %29 = icmp eq i64 %28, -1
  br i1 %29, label %30, label %31

30:                                               ; preds = %25
  br label %17, !llvm.loop !51

31:                                               ; preds = %25, %21
  %32 = load i32, ptr %5, align 4
  %33 = and i32 %32, 16
  %34 = icmp ne i32 %33, 0
  br i1 %34, label %40, label %35

35:                                               ; preds = %31
  %36 = load ptr, ptr %8, align 8
  %37 = getelementptr inbounds nuw %struct.slurmdb_tres_rec_t, ptr %36, i32 0, i32 5
  %38 = load ptr, ptr %37, align 8
  %39 = icmp ne ptr %38, null
  br i1 %39, label %56, label %40

40:                                               ; preds = %35, %31
  %41 = load ptr, ptr %6, align 8
  %42 = icmp ne ptr %41, null
  br i1 %42, label %47, label %43

43:                                               ; preds = %40
  %44 = load i32, ptr %5, align 4
  %45 = and i32 %44, 32
  %46 = icmp ne i32 %45, 0
  br label %47

47:                                               ; preds = %43, %40
  %48 = phi i1 [ true, %40 ], [ %46, %43 ]
  %49 = select i1 %48, ptr @.str.13, ptr @.str.11
  %50 = load ptr, ptr %8, align 8
  %51 = getelementptr inbounds nuw %struct.slurmdb_tres_rec_t, ptr %50, i32 0, i32 3
  %52 = load i32, ptr %51, align 8
  %53 = load ptr, ptr %8, align 8
  %54 = getelementptr inbounds nuw %struct.slurmdb_tres_rec_t, ptr %53, i32 0, i32 2
  %55 = load i64, ptr %54, align 8
  call void (ptr, ptr, ...) @_xstrfmtcat(ptr noundef %6, ptr noundef @.str.153, ptr noundef %49, i32 noundef %52, i64 noundef %55)
  br label %88

56:                                               ; preds = %35
  %57 = load ptr, ptr %6, align 8
  %58 = icmp ne ptr %57, null
  br i1 %58, label %63, label %59

59:                                               ; preds = %56
  %60 = load i32, ptr %5, align 4
  %61 = and i32 %60, 32
  %62 = icmp ne i32 %61, 0
  br label %63

63:                                               ; preds = %59, %56
  %64 = phi i1 [ true, %56 ], [ %62, %59 ]
  %65 = select i1 %64, ptr @.str.13, ptr @.str.11
  %66 = load ptr, ptr %8, align 8
  %67 = getelementptr inbounds nuw %struct.slurmdb_tres_rec_t, ptr %66, i32 0, i32 5
  %68 = load ptr, ptr %67, align 8
  %69 = load ptr, ptr %8, align 8
  %70 = getelementptr inbounds nuw %struct.slurmdb_tres_rec_t, ptr %69, i32 0, i32 4
  %71 = load ptr, ptr %70, align 8
  %72 = icmp ne ptr %71, null
  %73 = select i1 %72, ptr @.str.155, ptr @.str.11
  %74 = load ptr, ptr %8, align 8
  %75 = getelementptr inbounds nuw %struct.slurmdb_tres_rec_t, ptr %74, i32 0, i32 4
  %76 = load ptr, ptr %75, align 8
  %77 = icmp ne ptr %76, null
  br i1 %77, label %78, label %82

78:                                               ; preds = %63
  %79 = load ptr, ptr %8, align 8
  %80 = getelementptr inbounds nuw %struct.slurmdb_tres_rec_t, ptr %79, i32 0, i32 4
  %81 = load ptr, ptr %80, align 8
  br label %83

82:                                               ; preds = %63
  br label %83

83:                                               ; preds = %82, %78
  %84 = phi ptr [ %81, %78 ], [ @.str.11, %82 ]
  %85 = load ptr, ptr %8, align 8
  %86 = getelementptr inbounds nuw %struct.slurmdb_tres_rec_t, ptr %85, i32 0, i32 2
  %87 = load i64, ptr %86, align 8
  call void (ptr, ptr, ...) @_xstrfmtcat(ptr noundef %6, ptr noundef @.str.154, ptr noundef %65, ptr noundef %68, ptr noundef %73, ptr noundef %84, i64 noundef %87)
  br label %88

88:                                               ; preds = %83, %47
  br label %17, !llvm.loop !51

89:                                               ; preds = %17
  %90 = load ptr, ptr %7, align 8
  call void @list_iterator_destroy(ptr noundef %90)
  %91 = load ptr, ptr %6, align 8
  store ptr %91, ptr %3, align 8
  store i32 1, ptr %9, align 4
  br label %92

92:                                               ; preds = %89, %12
  call void @llvm.lifetime.end.p0(i64 8, ptr %8) #10
  call void @llvm.lifetime.end.p0(i64 8, ptr %7) #10
  call void @llvm.lifetime.end.p0(i64 8, ptr %6) #10
  %93 = load ptr, ptr %3, align 8
  ret ptr %93
}