; Function Attrs: nounwind uwtable
define dso_local ptr @slurmdb_make_tres_string(ptr noundef %0, i32 noundef %1) local_unnamed_addr #0 {
  %3 = alloca ptr, align 8
  call void @llvm.lifetime.start.p0(i64 8, ptr nonnull %3) #19
  store ptr null, ptr %3, align 8
  %.not = icmp eq ptr %0, null
  br i1 %.not, label %66, label %4

4:                                                ; preds = %2
  %5 = tail call ptr @list_iterator_create(ptr noundef nonnull %0) #19
  %6 = tail call ptr @list_next(ptr noundef %5) #19
  %.not2126 = icmp eq ptr %6, null
  br i1 %.not2126, label %._crit_edge, label %.lr.ph

.lr.ph:                                           ; preds = %4
  %7 = and i32 %1, 4
  %.not22 = icmp eq i32 %7, 0
  %8 = and i32 %1, 16
  %.not23 = icmp eq i32 %8, 0
  %9 = and i32 %1, 32
  %10 = icmp ne i32 %9, 0
  br i1 %.not23, label %.lr.ph.split.us, label %.lr.ph.split

.lr.ph.split.us:                                  ; preds = %.lr.ph, %.backedge.us
  %11 = phi ptr [ %34, %.backedge.us ], [ %6, %.lr.ph ]
  br i1 %.not22, label %16, label %12

12:                                               ; preds = %.lr.ph.split.us
  %13 = getelementptr inbounds nuw i8, ptr %11, i64 16
  %14 = load i64, ptr %13, align 8
  %15 = icmp eq i64 %14, -1
  br i1 %15, label %.backedge.us, label %16

16:                                               ; preds = %12, %.lr.ph.split.us
  %17 = getelementptr inbounds nuw i8, ptr %11, i64 40
  %18 = load ptr, ptr %17, align 8
  %.not24.us = icmp eq ptr %18, null
  %19 = load ptr, ptr %3, align 8
  %20 = icmp ne ptr %19, null
  %21 = or i1 %10, %20
  %22 = select i1 %21, ptr @.str.13, ptr @.str.11
  br i1 %.not24.us, label %29, label %23

23:                                               ; preds = %16
  %24 = getelementptr inbounds nuw i8, ptr %11, i64 32
  %25 = load ptr, ptr %24, align 8
  %.not25.us = icmp eq ptr %25, null
  %26 = select i1 %.not25.us, ptr @.str.11, ptr @.str.155
  %spec.select.us = select i1 %.not25.us, ptr @.str.11, ptr %25
  %27 = getelementptr inbounds nuw i8, ptr %11, i64 16
  %28 = load i64, ptr %27, align 8
  call void (ptr, ptr, ...) @_xstrfmtcat(ptr noundef nonnull %3, ptr noundef nonnull @.str.154, ptr noundef nonnull %22, ptr noundef nonnull %18, ptr noundef nonnull %26, ptr noundef nonnull %spec.select.us, i64 noundef %28) #19
  br label %.backedge.us

29:                                               ; preds = %16
  %30 = getelementptr inbounds nuw i8, ptr %11, i64 24
  %31 = load i32, ptr %30, align 8
  %32 = getelementptr inbounds nuw i8, ptr %11, i64 16
  %33 = load i64, ptr %32, align 8
  call void (ptr, ptr, ...) @_xstrfmtcat(ptr noundef nonnull %3, ptr noundef nonnull @.str.153, ptr noundef nonnull %22, i32 noundef %31, i64 noundef %33) #19
  br label %.backedge.us

.backedge.us:                                     ; preds = %23, %29, %12
  %34 = call ptr @list_next(ptr noundef %5) #19
  %.not21.us = icmp eq ptr %34, null
  br i1 %.not21.us, label %._crit_edge, label %.lr.ph.split.us, !llvm.loop !51

.lr.ph.split:                                     ; preds = %.lr.ph
  br i1 %.not22, label %.lr.ph.split.split.us, label %.lr.ph.split.split

.lr.ph.split.split.us:                            ; preds = %.lr.ph.split
  br i1 %10, label %.backedge.us27.us, label %.backedge.us27

.backedge.us27.us:                                ; preds = %.lr.ph.split.split.us, %.backedge.us27.us
  %35 = phi ptr [ %40, %.backedge.us27.us ], [ %6, %.lr.ph.split.split.us ]
  %36 = getelementptr inbounds nuw i8, ptr %35, i64 24
  %37 = load i32, ptr %36, align 8
  %38 = getelementptr inbounds nuw i8, ptr %35, i64 16
  %39 = load i64, ptr %38, align 8
  call void (ptr, ptr, ...) @_xstrfmtcat(ptr noundef nonnull %3, ptr noundef nonnull @.str.153, ptr noundef nonnull @.str.13, i32 noundef %37, i64 noundef %39) #19
  %40 = call ptr @list_next(ptr noundef %5) #19
  %.not21.us28.us = icmp eq ptr %40, null
  br i1 %.not21.us28.us, label %._crit_edge, label %.backedge.us27.us, !llvm.loop !51

.backedge.us27:                                   ; preds = %.lr.ph.split.split.us, %.backedge.us27
  %41 = phi ptr [ %47, %.backedge.us27 ], [ %6, %.lr.ph.split.split.us ]
  %42 = load ptr, ptr %3, align 8
  %.not34 = icmp eq ptr %42, null
  %spec.select = select i1 %.not34, ptr @.str.11, ptr @.str.13
  %43 = getelementptr inbounds nuw i8, ptr %41, i64 24
  %44 = load i32, ptr %43, align 8
  %45 = getelementptr inbounds nuw i8, ptr %41, i64 16
  %46 = load i64, ptr %45, align 8
  call void (ptr, ptr, ...) @_xstrfmtcat(ptr noundef nonnull %3, ptr noundef nonnull @.str.153, ptr noundef nonnull %spec.select, i32 noundef %44, i64 noundef %46) #19
  %47 = call ptr @list_next(ptr noundef %5) #19
  %.not21.us28 = icmp eq ptr %47, null
  br i1 %.not21.us28, label %._crit_edge, label %.backedge.us27, !llvm.loop !51

.lr.ph.split.split:                               ; preds = %.lr.ph.split
  br i1 %10, label %.lr.ph.split.split.split.us, label %.lr.ph.split.split.split

.lr.ph.split.split.split.us:                      ; preds = %.lr.ph.split.split, %.backedge.us29
  %48 = phi ptr [ %55, %.backedge.us29 ], [ %6, %.lr.ph.split.split ]
  %49 = getelementptr inbounds nuw i8, ptr %48, i64 16
  %50 = load i64, ptr %49, align 8
  %51 = icmp eq i64 %50, -1
  br i1 %51, label %.backedge.us29, label %52

52:                                               ; preds = %.lr.ph.split.split.split.us
  %53 = getelementptr inbounds nuw i8, ptr %48, i64 24
  %54 = load i32, ptr %53, align 8
  call void (ptr, ptr, ...) @_xstrfmtcat(ptr noundef nonnull %3, ptr noundef nonnull @.str.153, ptr noundef nonnull @.str.13, i32 noundef %54, i64 noundef %50) #19
  br label %.backedge.us29

.backedge.us29:                                   ; preds = %52, %.lr.ph.split.split.split.us
  %55 = call ptr @list_next(ptr noundef %5) #19
  %.not21.us30 = icmp eq ptr %55, null
  br i1 %.not21.us30, label %._crit_edge, label %.lr.ph.split.split.split.us, !llvm.loop !51

.lr.ph.split.split.split:                         ; preds = %.lr.ph.split.split, %.backedge
  %56 = phi ptr [ %64, %.backedge ], [ %6, %.lr.ph.split.split ]
  %57 = getelementptr inbounds nuw i8, ptr %56, i64 16
  %58 = load i64, ptr %57, align 8
  %59 = icmp eq i64 %58, -1
  br i1 %59, label %.backedge, label %60

60:                                               ; preds = %.lr.ph.split.split.split
  %61 = load ptr, ptr %3, align 8
  %.not33 = icmp eq ptr %61, null
  %spec.select32 = select i1 %.not33, ptr @.str.11, ptr @.str.13
  %62 = getelementptr inbounds nuw i8, ptr %56, i64 24
  %63 = load i32, ptr %62, align 8
  call void (ptr, ptr, ...) @_xstrfmtcat(ptr noundef nonnull %3, ptr noundef nonnull @.str.153, ptr noundef nonnull %spec.select32, i32 noundef %63, i64 noundef %58) #19
  br label %.backedge

.backedge:                                        ; preds = %60, %.lr.ph.split.split.split
  %64 = call ptr @list_next(ptr noundef %5) #19
  %.not21 = icmp eq ptr %64, null
  br i1 %.not21, label %._crit_edge, label %.lr.ph.split.split.split, !llvm.loop !51

._crit_edge:                                      ; preds = %.backedge, %.backedge.us29, %.backedge.us27, %.backedge.us27.us, %.backedge.us, %4
  call void @list_iterator_destroy(ptr noundef %5) #19
  %65 = load ptr, ptr %3, align 8
  br label %66

66:                                               ; preds = %2, %._crit_edge
  %.0 = phi ptr [ %65, %._crit_edge ], [ null, %2 ]
  call void @llvm.lifetime.end.p0(i64 8, ptr nonnull %3) #19
  ret ptr %.0
}